; Function Attrs: nounwind uwtable
define dso_local void @FreeConfigVariables(ptr noundef %0) local_unnamed_addr #0 {
  %.not5 = icmp eq ptr %0, null
  br i1 %.not5, label %._crit_edge, label %.lr.ph

.lr.ph:                                           ; preds = %1, %FreeConfigVariable.exit
  %.06 = phi ptr [ %3, %FreeConfigVariable.exit ], [ %0, %1 ]
  %2 = getelementptr inbounds nuw i8, ptr %.06, i64 40
  %3 = load ptr, ptr %2, align 8
  %4 = load ptr, ptr %.06, align 8
  %.not.i = icmp eq ptr %4, null
  br i1 %.not.i, label %6, label %5

5:                                                ; preds = %.lr.ph
  tail call void @pfree(ptr noundef nonnull %4) #28
  br label %6

6:                                                ; preds = %5, %.lr.ph
  %7 = getelementptr inbounds nuw i8, ptr %.06, i64 8
  %8 = load ptr, ptr %7, align 8
  %.not12.i = icmp eq ptr %8, null
  br i1 %.not12.i, label %10, label %9

9:                                                ; preds = %6
  tail call void @pfree(ptr noundef nonnull %8) #28
  br label %10

10:                                               ; preds = %9, %6
  %11 = getelementptr inbounds nuw i8, ptr %.06, i64 16
  %12 = load ptr, ptr %11, align 8
  %.not13.i = icmp eq ptr %12, null
  br i1 %.not13.i, label %14, label %13

13:                                               ; preds = %10
  tail call void @pfree(ptr noundef nonnull %12) #28
  br label %14

14:                                               ; preds = %13, %10
  %15 = getelementptr inbounds nuw i8, ptr %.06, i64 24
  %16 = load ptr, ptr %15, align 8
  %.not14.i = icmp eq ptr %16, null
  br i1 %.not14.i, label %FreeConfigVariable.exit, label %17

17:                                               ; preds = %14
  tail call void @pfree(ptr noundef nonnull %16) #28
  br label %FreeConfigVariable.exit

FreeConfigVariable.exit:                          ; preds = %14, %17
  tail call void @pfree(ptr noundef nonnull %.06) #28
  %.not = icmp eq ptr %3, null
  br i1 %.not, label %._crit_edge, label %.lr.ph, !llvm.loop !21

._crit_edge:                                      ; preds = %FreeConfigVariable.exit, %1
  ret void
}